Certificate:
    Data:
        Version: 3 (0x2)
        Serial Number: 65657 (0x10079)
        Signature Algorithm: sha256WithRSAEncryption
        Issuer: C=TN, O=TEKUP, OU=DEPARTEMENT INFORMATIQUE, CN=ROOT CA - TEKUP
        Validity
            Not Before: Jan 12 17:17:30 2021 GMT
            Not After : Jan 12 17:17:30 2022 GMT
        Subject: C=TN, O=TEKUP, OU=DEPARTEMENT INFORMATIQUE, CN=NAIIM KHASKHOUSSI/emailAddress=khaskhoussi.naiim@gmail.com
        Subject Public Key Info:
            Public Key Algorithm: rsaEncryption
                RSA Public-Key: (2048 bit)
                Modulus:
                    00:f0:9b:57:3c:f1:1c:45:a2:86:2a:69:03:51:65:
                    26:8a:d5:4c:f8:20:8e:9e:cb:b3:6b:2e:25:7d:3b:
                    3f:07:77:b7:97:56:66:74:1b:c4:c6:20:c5:db:4b:
                    1e:4f:8a:28:03:0e:04:38:f8:3b:5f:3f:4a:24:97:
                    ee:8b:fe:51:d0:82:97:d9:4c:17:42:b1:13:f3:9a:
                    ff:41:c3:0f:84:02:c0:56:c5:e4:c8:1f:09:d2:e7:
                    24:58:fd:37:3e:69:79:37:f2:51:69:59:e6:27:b3:
                    6c:3b:19:57:47:b1:1a:ac:c1:16:b1:ef:9b:d9:c4:
                    95:26:4a:00:ff:83:0b:35:b1:5f:df:0b:e0:c1:49:
                    93:e4:13:cb:a9:c4:6b:b8:6f:f9:80:23:db:c2:16:
                    7a:6b:65:7a:b3:af:b1:e9:7b:e9:68:8b:98:3a:fa:
                    18:ef:3f:68:c3:eb:49:23:6e:f3:74:30:4a:6e:0a:
                    77:d0:21:49:2d:e3:78:ff:6f:18:a1:eb:fd:ed:a9:
                    0e:67:8e:8a:c4:34:73:79:2a:ed:1d:bf:82:72:d6:
                    20:8a:f9:05:f2:be:c4:e8:26:a5:15:cd:15:f3:40:
                    49:0d:e1:ff:6d:c5:6c:eb:dc:dd:fd:66:d5:dd:5f:
                    db:af:f8:ae:64:b6:f7:fe:0a:8e:85:eb:bc:a2:65:
                    99:d7
                Exponent: 65537 (0x10001)
        X509v3 extensions:
            X509v3 Basic Constraints: 
                CA:FALSE
            Netscape Cert Type: 
                SSL Client, S/MIME
            X509v3 Subject Key Identifier: 
                3C:3D:AD:B0:1E:19:98:1F:8B:18:0D:6C:E4:B4:26:FC:0F:07:E0:FC
            X509v3 Authority Key Identifier: 
                keyid:56:34:44:18:20:22:8E:79:07:35:2B:44:9E:CE:CB:B6:86:55:01:4B
                DirName:/C=TN/O=TEKUP/OU=DEPARTEMENT INFORMATIQUE/CN=ROOT CA - TEKUP
                serial:FF:FF

            X509v3 Key Usage: 
                Digital Signature, Non Repudiation, Key Encipherment
            X509v3 Extended Key Usage: 
                TLS Web Client Authentication, E-mail Protection
            Netscape Comment: 
                TEST USER CERTIFICATE
            X509v3 Subject Alternative Name: 
                email:nizar.benneji@supcom.tn
    Signature Algorithm: sha256WithRSAEncryption
         1a:37:52:cb:63:dc:31:dc:44:28:6a:27:0c:2b:aa:84:f9:ad:
         0c:3e:19:a5:d8:5c:9f:84:77:ea:2e:d1:b9:7f:98:af:c0:bb:
         98:56:89:a8:e8:6a:18:54:97:28:c4:5e:5a:6f:87:5e:fa:65:
         a6:3d:2c:49:2a:15:e6:99:27:67:16:1a:53:da:84:74:93:b9:
         5f:5c:e8:a2:a0:e2:65:3a:fe:16:1a:f5:1a:7d:29:69:a2:39:
         80:ab:7b:36:de:fe:19:17:62:90:e3:b1:97:af:6b:b4:02:e5:
         a4:7c:a6:3c:e3:76:41:a8:f6:e8:b8:bc:01:d0:7e:6b:3d:ac:
         57:af:1d:b6:6d:d1:b2:16:89:55:6e:c4:44:5a:82:92:20:ea:
         1d:5b:e5:b1:82:4f:14:32:a1:20:63:46:2c:83:be:b6:75:56:
         6e:54:ff:51:be:09:c9:6f:64:b6:41:37:f0:fb:ed:8e:71:6d:
         c8:6f:b6:af:1c:77:84:ad:5f:f4:17:05:78:de:4b:8d:19:3d:
         70:ac:21:81:ad:65:24:81:35:b5:2b:1b:56:cb:2d:fe:2a:35:
         a9:3d:15:47:04:77:95:57:4c:b8:cd:8d:90:a9:6f:4f:51:41:
         c7:7b:6b:1d:a6:06:c6:8a:4d:f9:db:23:2e:96:d3:25:7d:ff:
         ad:0e:a7:c4:fe:b4:42:a3:f7:72:92:44:fa:b5:27:0b:81:0b:
         30:bb:aa:41:bd:fd:5b:19:6a:cf:d1:d8:ab:1e:d9:fd:4b:4b:
         41:89:ca:30:63:80:69:d2:60:ed:9c:ad:bb:b5:59:f1:c1:b1:
         ef:f5:29:12:0f:db:83:de:d1:16:4f:0e:ec:de:ba:ed:37:ad:
         56:02:9f:bd:89:f4:22:c5:ef:fa:4c:25:cb:eb:44:10:bc:c1:
         5f:7b:4c:67:92:3e:a1:dc:aa:60:1a:db:df:85:5a:7b:63:0a:
         c8:bb:76:49:59:23:8a:72:42:f5:70:df:02:a3:d7:09:56:cc:
         45:90:05:f1:5b:28:9d:cf:02:e2:7c:66:2e:56:56:b5:bb:cc:
         87:95:d8:b3:86:5c:da:39:73:ec:dd:31:94:98:1f:c6:f1:b0:
         0e:cd:c2:12:cd:f1:2b:58:8f:6f:cb:55:3e:4a:38:5c:ea:1c:
         41:d5:bd:d8:f8:ee:35:bf:e6:ca:eb:c5:47:04:b4:e1:b4:c8:
         24:2c:ab:cb:bb:35:33:f4:aa:c3:b4:ed:9a:6c:bc:37:17:55:
         7d:a0:09:1b:ba:ab:ef:a6:09:74:e2:ae:93:61:97:9a:9e:2e:
         39:25:b1:fb:2a:e3:01:8e:7d:3d:70:0b:52:47:5e:3b:81:a9:
         a2:24:51:90:49:1f:74:21
-----BEGIN CERTIFICATE-----
MIIFoDCCA4igAwIBAgIDAQB5MA0GCSqGSIb3DQEBCwUAMFoxCzAJBgNVBAYTAlRO
MQ4wDAYDVQQKEwVURUtVUDEhMB8GA1UECxMYREVQQVJURU1FTlQgSU5GT1JNQVRJ
UVVFMRgwFgYDVQQDEw9ST09UIENBIC0gVEVLVVAwHhcNMjEwMTEyMTcxNzMwWhcN
MjIwMTEyMTcxNzMwWjCBiDELMAkGA1UEBhMCVE4xDjAMBgNVBAoTBVRFS1VQMSEw
HwYDVQQLExhERVBBUlRFTUVOVCBJTkZPUk1BVElRVUUxGjAYBgNVBAMTEU5BSUlN
IEtIQVNLSE9VU1NJMSowKAYJKoZIhvcNAQkBFhtraGFza2hvdXNzaS5uYWlpbUBn
bWFpbC5jb20wggEiMA0GCSqGSIb3DQEBAQUAA4IBDwAwggEKAoIBAQDwm1c88RxF
ooYqaQNRZSaK1Uz4II6ey7NrLiV9Oz8Hd7eXVmZ0G8TGIMXbSx5PiigDDgQ4+Dtf
P0okl+6L/lHQgpfZTBdCsRPzmv9Bww+EAsBWxeTIHwnS5yRY/Tc+aXk38lFpWeYn
s2w7GVdHsRqswRax75vZxJUmSgD/gws1sV/fC+DBSZPkE8upxGu4b/mAI9vCFnpr
ZXqzr7Hpe+loi5g6+hjvP2jD60kjbvN0MEpuCnfQIUkt43j/bxih6/3tqQ5njorE
NHN5Ku0dv4Jy1iCK+QXyvsToJqUVzRXzQEkN4f9txWzr3N39ZtXdX9uv+K5ktvf+
Co6F67yiZZnXAgMBAAGjggE+MIIBOjAJBgNVHRMEAjAAMBEGCWCGSAGG+EIBAQQE
AwIFoDAdBgNVHQ4EFgQUPD2tsB4ZmB+LGA1s5LQm/A8H4PwwgYQGA1UdIwR9MHuA
FFY0RBggIo55BzUrRJ7Oy7aGVQFLoV6kXDBaMQswCQYDVQQGEwJUTjEOMAwGA1UE
ChMFVEVLVVAxITAfBgNVBAsTGERFUEFSVEVNRU5UIElORk9STUFUSVFVRTEYMBYG
A1UEAxMPUk9PVCBDQSAtIFRFS1VQggMA//8wCwYDVR0PBAQDAgXgMB0GA1UdJQQW
MBQGCCsGAQUFBwMCBggrBgEFBQcDBDAkBglghkgBhvhCAQ0EFxYVVEVTVCBVU0VS
IENFUlRJRklDQVRFMCIGA1UdEQQbMBmBF25pemFyLmJlbm5lamlAc3VwY29tLnRu
MA0GCSqGSIb3DQEBCwUAA4ICAQAaN1LLY9wx3EQoaicMK6qE+a0MPhml2FyfhHfq
LtG5f5ivwLuYVomo6GoYVJcoxF5ab4de+mWmPSxJKhXmmSdnFhpT2oR0k7lfXOii
oOJlOv4WGvUafSlpojmAq3s23v4ZF2KQ47GXr2u0AuWkfKY843ZBqPbouLwB0H5r
PaxXrx22bdGyFolVbsREWoKSIOodW+Wxgk8UMqEgY0Ysg762dVZuVP9RvgnJb2S2
QTfw++2OcW3Ib7avHHeErV/0FwV43kuNGT1wrCGBrWUkgTW1KxtWyy3+KjWpPRVH
BHeVV0y4zY2QqW9PUUHHe2sdpgbGik352yMultMlff+tDqfE/rRCo/dykkT6tScL
gQswu6pBvf1bGWrP0dirHtn9S0tBicowY4Bp0mDtnK27tVnxwbHv9SkSD9uD3tEW
Tw7s3rrtN61WAp+9ifQixe/6TCXL60QQvMFfe0xnkj6h3KpgGtvfhVp7YwrIu3ZJ
WSOKckL1cN8Co9cJVsxFkAXxWyidzwLifGYuVla1u8yHldizhlzaOXPs3TGUmB/G
8bAOzcISzfErWI9vy1U+Sjhc6hxB1b3Y+O41v+bK68VHBLThtMgkLKvLuzUz9KrD
tO2abLw3F1V9oAkbuqvvpgl04q6TYZeani45JbH7KuMBjn09cAtSR147gamiJFGQ
SR90IQ==
-----END CERTIFICATE-----
