Certificate:
    Data:
        Version: 3 (0x2)
        Serial Number: 65656 (0x10078)
    Signature Algorithm: sha256WithRSAEncryption
        Issuer: C=TN, O=UNIVERSITE CENTRALE, OU=DEPARTEMENT INFORMATIQUE, CN=ROOT CA - UC
        Validity
            Not Before: Nov 10 15:08:17 2020 GMT
            Not After : Nov 10 15:08:17 2021 GMT
        Subject: C=TN, O=UNIVERSITE CENTRALE, OU=DEPT INFO, CN=NIZAR BEN NEJI/emailAddress=nizarbenneji@gmail.com
        Subject Public Key Info:
            Public Key Algorithm: rsaEncryption
                Public-Key: (2048 bit)
                Modulus:
                    00:ab:c3:c3:b0:ce:8c:c1:ca:2d:23:a9:79:a1:24:
                    30:12:65:59:87:9d:3d:ff:36:00:4f:05:9b:e4:2d:
                    bd:c0:6a:19:05:8f:98:1a:1f:df:8d:00:60:2b:76:
                    89:4f:81:22:9a:da:dd:17:8f:8b:2f:9a:c4:fc:e4:
                    72:24:39:4b:84:ba:79:fc:9b:19:97:7d:4c:a9:a3:
                    3e:10:c5:36:d6:69:ed:40:94:46:3b:fa:49:78:e9:
                    7b:15:30:3f:2d:51:25:53:06:0d:da:a7:9b:7c:22:
                    6f:25:90:9f:be:f0:8f:7a:ad:9e:11:c2:89:a5:ba:
                    15:1a:7a:c8:65:1a:b8:86:b5:27:5c:59:ea:37:e5:
                    4a:2a:6b:c6:1c:2b:fc:29:10:50:76:77:9c:ed:d7:
                    b8:d2:b5:8c:87:10:6d:93:a7:39:b9:4f:0d:03:e6:
                    ef:2a:01:ff:a8:97:0c:b5:8e:1d:e9:bf:a5:a3:14:
                    60:7b:0e:f5:f6:59:4e:d8:32:3a:67:76:eb:12:d3:
                    eb:3a:fb:4b:9b:7e:60:0e:18:cf:da:02:94:9c:36:
                    e6:0e:7d:72:3c:f6:17:63:c4:c2:13:68:b8:0d:b5:
                    a7:7e:05:59:ad:29:f8:d3:e3:d3:e4:cb:7f:c6:d0:
                    d8:1f:91:f8:ee:ef:8b:2b:86:b9:9b:ec:26:78:d0:
                    6b:71
                Exponent: 65537 (0x10001)
        X509v3 extensions:
            X509v3 Basic Constraints: 
                CA:FALSE
            Netscape Cert Type: 
                SSL Client, S/MIME
            X509v3 Subject Key Identifier: 
                4B:23:A5:7B:CD:BE:0F:1D:D5:A6:27:EE:78:A8:DB:D2:08:01:FA:31
            X509v3 Authority Key Identifier: 
                keyid:C3:23:C8:07:F0:4C:F3:E9:88:AB:01:1A:10:75:0D:09:6B:37:F6:80
                DirName:/C=TN/O=UNIVERSITE CENTRALE/OU=DEPARTEMENT INFORMATIQUE/CN=ROOT CA - UC
                serial:AB:CD

            X509v3 Key Usage: 
                Digital Signature, Non Repudiation, Key Encipherment
            X509v3 Extended Key Usage: 
                TLS Web Client Authentication, E-mail Protection
            Netscape Comment: 
                TEST USER CERTIFICATE
            X509v3 Subject Alternative Name: 
                email:nizarbenneji@gmail.com
    Signature Algorithm: sha256WithRSAEncryption
         26:f9:15:67:f2:c1:a6:d2:2b:84:cd:85:42:7e:ce:a7:ab:bf:
         ef:89:cd:9d:b8:f1:7f:7d:c7:fa:2d:0f:e5:88:e4:8f:fe:00:
         ea:ae:f6:07:6c:d3:b5:f3:cc:2a:8f:15:42:6a:96:c9:e2:7c:
         af:ab:35:1c:29:f5:21:e6:5c:7a:4c:b0:7a:43:70:73:e8:c5:
         12:b9:d9:af:01:09:c4:72:b3:70:d1:2d:b7:83:0c:99:42:31:
         4c:e6:e6:ca:be:78:fe:64:5e:2c:26:f3:80:4c:bb:b5:8e:e2:
         75:37:33:6c:a2:ce:a4:05:e9:f7:a3:6b:df:6f:7d:4e:05:4f:
         cc:42:0e:2b:45:8f:a9:1a:0c:a5:20:18:ee:7b:be:87:3a:06:
         85:0e:52:bf:73:27:73:8b:62:1f:ea:dd:95:27:85:e2:28:a0:
         fd:2e:03:c7:af:4a:52:e9:76:f9:fe:b6:bd:7b:52:a2:9f:a1:
         de:5d:2b:05:5f:2c:6c:b7:cf:14:77:08:54:90:8a:b0:bd:77:
         ca:e0:33:df:06:bc:c2:b7:13:65:bb:43:9f:91:62:45:b9:6c:
         00:7e:2c:fc:3b:0d:ae:47:15:be:6d:cb:eb:b2:11:22:24:f8:
         0c:1f:e0:c5:ed:8b:e2:d3:f6:ba:98:c9:e0:36:b4:67:5b:f1:
         4d:f4:7f:28:90:e6:0e:1c:f1:a6:ca:90:45:7a:cc:f9:ce:de:
         4b:b6:1b:75:ec:82:84:9a:02:0c:3b:04:e5:0f:43:a1:4b:86:
         d8:99:cf:ce:36:86:b4:80:26:cd:11:1b:19:c1:b1:5f:19:cd:
         58:34:ae:86:67:57:b5:5e:25:c5:1d:09:b0:3f:7b:e0:15:41:
         a3:59:43:28:49:73:b1:f9:7f:0f:37:6e:37:20:3b:1a:36:e4:
         4b:29:66:55:9d:ce:b2:33:44:6e:e0:cf:31:fd:6b:5a:b9:96:
         ff:94:72:cd:0c:db:d4:59:8a:b2:1c:7d:63:fe:48:24:f7:16:
         8a:cb:75:4d:81:75:1a:22:7c:1e:0e:65:78:b7:cf:dd:c7:f8:
         e8:64:9a:21:6f:12:fb:81:1e:d5:05:d3:d7:4b:ec:60:a1:ae:
         44:87:5e:c1:d9:71:d1:d7:26:eb:44:ff:39:95:27:8d:3e:81:
         94:6e:73:ab:62:3b:5c:23:5f:24:ca:a8:84:4d:22:fb:bb:02:
         74:c9:c8:3e:c9:1e:1c:e1:10:a9:b2:1d:de:0e:63:88:dd:26:
         87:7d:4f:cc:68:b7:c0:c8:96:6e:90:fa:53:b5:c5:90:33:34:
         0c:20:04:7a:ab:1c:a7:13:35:3a:c3:b8:95:92:d3:ef:85:f2:
         b8:be:4f:2f:87:9f:8f:6c
-----BEGIN CERTIFICATE-----
MIIFrTCCA5WgAwIBAgIDAQB4MA0GCSqGSIb3DQEBCwUAMGUxCzAJBgNVBAYTAlRO
MRwwGgYDVQQKExNVTklWRVJTSVRFIENFTlRSQUxFMSEwHwYDVQQLExhERVBBUlRF
TUVOVCBJTkZPUk1BVElRVUUxFTATBgNVBAMTDFJPT1QgQ0EgLSBVQzAeFw0yMDEx
MTAxNTA4MTdaFw0yMTExMTAxNTA4MTdaMH8xCzAJBgNVBAYTAlROMRwwGgYDVQQK
ExNVTklWRVJTSVRFIENFTlRSQUxFMRIwEAYDVQQLEwlERVBUIElORk8xFzAVBgNV
BAMTDk5JWkFSIEJFTiBORUpJMSUwIwYJKoZIhvcNAQkBFhZuaXphcmJlbm5lamlA
Z21haWwuY29tMIIBIjANBgkqhkiG9w0BAQEFAAOCAQ8AMIIBCgKCAQEAq8PDsM6M
wcotI6l5oSQwEmVZh509/zYATwWb5C29wGoZBY+YGh/fjQBgK3aJT4EimtrdF4+L
L5rE/ORyJDlLhLp5/JsZl31MqaM+EMU21mntQJRGO/pJeOl7FTA/LVElUwYN2qeb
fCJvJZCfvvCPeq2eEcKJpboVGnrIZRq4hrUnXFnqN+VKKmvGHCv8KRBQdnec7de4
0rWMhxBtk6c5uU8NA+bvKgH/qJcMtY4d6b+loxRgew719llO2DI6Z3brEtPrOvtL
m35gDhjP2gKUnDbmDn1yPPYXY8TCE2i4DbWnfgVZrSn40+PT5Mt/xtDYH5H47u+L
K4a5m+wmeNBrcQIDAQABo4IBSjCCAUYwCQYDVR0TBAIwADARBglghkgBhvhCAQEE
BAMCBaAwHQYDVR0OBBYEFEsjpXvNvg8d1aYn7nio29IIAfoxMIGRBgNVHSMEgYkw
gYaAFMMjyAfwTPPpiKsBGhB1DQlrN/aAoWmkZzBlMQswCQYDVQQGEwJUTjEcMBoG
A1UEChMTVU5JVkVSU0lURSBDRU5UUkFMRTEhMB8GA1UECxMYREVQQVJURU1FTlQg
SU5GT1JNQVRJUVVFMRUwEwYDVQQDEwxST09UIENBIC0gVUOCAwCrzTALBgNVHQ8E
BAMCBeAwHQYDVR0lBBYwFAYIKwYBBQUHAwIGCCsGAQUFBwMEMCQGCWCGSAGG+EIB
DQQXFhVURVNUIFVTRVIgQ0VSVElGSUNBVEUwIQYDVR0RBBowGIEWbml6YXJiZW5u
ZWppQGdtYWlsLmNvbTANBgkqhkiG9w0BAQsFAAOCAgEAJvkVZ/LBptIrhM2FQn7O
p6u/74nNnbjxf33H+i0P5Yjkj/4A6q72B2zTtfPMKo8VQmqWyeJ8r6s1HCn1IeZc
ekywekNwc+jFErnZrwEJxHKzcNEtt4MMmUIxTObmyr54/mReLCbzgEy7tY7idTcz
bKLOpAXp96Nr3299TgVPzEIOK0WPqRoMpSAY7nu+hzoGhQ5Sv3Mnc4tiH+rdlSeF
4iig/S4Dx69KUul2+f62vXtSop+h3l0rBV8sbLfPFHcIVJCKsL13yuAz3wa8wrcT
ZbtDn5FiRblsAH4s/DsNrkcVvm3L67IRIiT4DB/gxe2L4tP2upjJ4Da0Z1vxTfR/
KJDmDhzxpsqQRXrM+c7eS7YbdeyChJoCDDsE5Q9DoUuG2JnPzjaGtIAmzREbGcGx
XxnNWDSuhmdXtV4lxR0JsD974BVBo1lDKElzsfl/DzduNyA7GjbkSylmVZ3OsjNE
buDPMf1rWrmW/5RyzQzb1FmKshx9Y/5IJPcWist1TYF1GiJ8Hg5leLfP3cf46GSa
IW8S+4Ee1QXT10vsYKGuRIdewdlx0dcm60T/OZUnjT6BlG5zq2I7XCNfJMqohE0i
+7sCdMnIPskeHOEQqbId3g5jiN0mh31PzGi3wMiWbpD6U7XFkDM0DCAEeqscpxM1
OsO4lZLT74XyuL5PL4efj2w=
-----END CERTIFICATE-----
